target datalayout = "e-m:e-p270:32:32-p271:32:32-p272:64:64-i64:64-i128:128-f80:128-n8:16:32:64-S128"
target triple = "x86_64-pc-linux-gnu"

%"class.Luau::DenseHashMap" = type { %"class.Luau::detail::DenseHashTable" }
%"class.Luau::detail::DenseHashTable" = type <{ ptr, i64, i64, ptr, [8 x i8] }>
%"class.std::__cxx11::basic_string" = type { %"struct.std::__cxx11::basic_string<char>::_Alloc_hider", i64, %union.anon }
%"struct.std::__cxx11::basic_string<char>::_Alloc_hider" = type { ptr }
%union.anon = type { i64, [8 x i8] }
%"struct.std::__detail::_Hash_node_base" = type { ptr }
%"struct.std::__detail::_Prime_rehash_policy" = type { float, i64 }
%"struct.Luau::NotNull" = type { ptr }
%"struct.Luau::BuiltinTypes" = type { %"class.std::unique_ptr", i8, ptr, ptr, ptr, ptr, ptr, ptr, ptr, ptr, ptr, ptr, ptr, ptr, ptr, ptr, ptr, ptr, ptr, ptr, ptr, ptr, ptr, ptr, ptr, ptr, ptr, ptr, ptr }
%"class.std::unique_ptr" = type { %"struct.std::__uniq_ptr_data" }
%"struct.std::__uniq_ptr_data" = type { %"class.std::__uniq_ptr_impl" }
%"class.std::__uniq_ptr_impl" = type { %"class.std::tuple" }
%"class.std::tuple" = type { %"struct.std::_Tuple_impl" }
%"struct.std::_Tuple_impl" = type { %"struct.std::_Head_base.37" }
%"struct.std::_Head_base.37" = type { ptr }
%"struct.Luau::Type" = type { %"class.Luau::Variant.454", i8, [7 x i8], %"class.std::optional.143", ptr }
%"class.Luau::Variant.454" = type { i32, [4 x i8], [336 x i8] }
%"class.std::optional.143" = type { %"struct.std::_Optional_base.144" }
%"struct.std::_Optional_base.144" = type { %"struct.std::_Optional_payload.146" }
%"struct.std::_Optional_payload.146" = type { %"struct.std::_Optional_payload.base.150", [7 x i8] }
%"struct.std::_Optional_payload.base.150" = type { %"struct.std::_Optional_payload_base.base.149" }
%"struct.std::_Optional_payload_base.base.149" = type <{ %"union.std::_Optional_payload_base<std::__cxx11::basic_string<char>>::_Storage", i8 }>
%"union.std::_Optional_payload_base<std::__cxx11::basic_string<char>>::_Storage" = type { %"class.std::__cxx11::basic_string" }
%"struct.Luau::SingletonType" = type { %"class.Luau::Variant" }
%"class.Luau::Variant" = type { i32, [4 x i8], [32 x i8] }
%"struct.Luau::BooleanSingleton" = type { i8 }
%"class.Luau::Normalizer" = type <{ %"class.std::unordered_map.68", %"class.std::unordered_map.82", %"class.std::unordered_map.82", %"class.std::unordered_map.100", %"class.Luau::DenseHashMap", %"class.Luau::DenseHashMap.114", ptr, %"struct.Luau::NotNull", %"struct.Luau::NotNull.119", i8, [7 x i8] }>
%"class.std::unordered_map.68" = type { %"class.std::_Hashtable.69" }
%"class.std::_Hashtable.69" = type { ptr, i64, %"struct.std::__detail::_Hash_node_base", i64, %"struct.std::__detail::_Prime_rehash_policy", ptr }
%"class.std::unordered_map.82" = type { %"class.std::_Hashtable.83" }
%"class.std::_Hashtable.83" = type { ptr, i64, %"struct.std::__detail::_Hash_node_base", i64, %"struct.std::__detail::_Prime_rehash_policy", ptr }
%"class.std::unordered_map.100" = type { %"class.std::_Hashtable.101" }
%"class.std::_Hashtable.101" = type { ptr, i64, %"struct.std::__detail::_Hash_node_base", i64, %"struct.std::__detail::_Prime_rehash_policy", ptr }
%"class.Luau::DenseHashMap.114" = type { %"class.Luau::detail::DenseHashTable.115" }
%"class.Luau::detail::DenseHashTable.115" = type <{ ptr, i64, i64, %"struct.std::pair.116", [8 x i8] }>
%"struct.std::pair.116" = type { ptr, ptr }
%"struct.Luau::NotNull.119" = type { ptr }

; Function Attrs: mustprogress nounwind uwtable
define linkonce_odr dso_local noundef ptr @_ZNK4Luau7VariantIJNS_16BooleanSingletonENS_15StringSingletonEEE6get_ifIS1_EEPKT_v(ptr noundef nonnull align 8 dereferenceable(40) %0) #2 comdat align 2 {
  %2 = alloca ptr, align 8
  %3 = alloca i32, align 4
  store ptr %0, ptr %2, align 8, !tbaa !187
  %4 = load ptr, ptr %2, align 8
  call void @llvm.lifetime.start.p0(i64 4, ptr %3) #4
  store i32 0, ptr %3, align 4, !tbaa !4
  %5 = getelementptr inbounds nuw %"class.Luau::Variant", ptr %4, i32 0, i32 0
  %6 = load i32, ptr %5, align 8, !tbaa !189
  %7 = icmp eq i32 0, %6
  br i1 %7, label %8, label %10

8:                                                ; preds = %1
  %9 = getelementptr inbounds nuw %"class.Luau::Variant", ptr %4, i32 0, i32 2
  br label %11

10:                                               ; preds = %1
  br label %11

11:                                               ; preds = %10, %8
  %12 = phi ptr [ %9, %8 ], [ null, %10 ]
  call void @llvm.lifetime.end.p0(i64 4, ptr %3) #4
  ret ptr %12
}

; Function Attrs: mustprogress nounwind uwtable
define linkonce_odr dso_local noundef ptr @_ZNK4Luau7VariantIJNS_9Unifiable5BoundIPKNS_4TypeEEENS1_5ErrorIS5_EENS_8FreeTypeENS_11GenericTypeENS_13PrimitiveTypeENS_13SingletonTypeENS_11BlockedTypeENS_20PendingExpansionTypeENS_12FunctionTypeENS_9TableTypeENS_13MetatableTypeENS_9ClassTypeENS_7AnyTypeENS_9UnionTypeENS_16IntersectionTypeENS_8LazyTypeENS_11UnknownTypeENS_9NeverTypeENS_12NegationTypeENS_12NoRefineTypeENS_24TypeFunctionInstanceTypeEEE6get_ifISC_EEPKT_v(ptr noundef nonnull align 8 dereferenceable(344) %0) #2 comdat align 2 {
  %2 = alloca ptr, align 8
  %3 = alloca i32, align 4
  store ptr %0, ptr %2, align 8, !tbaa !1418
  %4 = load ptr, ptr %2, align 8
  call void @llvm.lifetime.start.p0(i64 4, ptr %3) #4
  store i32 5, ptr %3, align 4, !tbaa !4
  %5 = getelementptr inbounds nuw %"class.Luau::Variant.454", ptr %4, i32 0, i32 0
  %6 = load i32, ptr %5, align 8, !tbaa !1420
  %7 = icmp eq i32 5, %6
  br i1 %7, label %8, label %10

8:                                                ; preds = %1
  %9 = getelementptr inbounds nuw %"class.Luau::Variant.454", ptr %4, i32 0, i32 2
  br label %11

10:                                               ; preds = %1
  br label %11

11:                                               ; preds = %10, %8
  %12 = phi ptr [ %9, %8 ], [ null, %10 ]
  call void @llvm.lifetime.end.p0(i64 4, ptr %3) #4
  ret ptr %12
}

; Function Attrs: mustprogress nounwind uwtable
define linkonce_odr dso_local noundef ptr @_ZNK4Luau7VariantIJNS_9Unifiable5BoundIPKNS_4TypeEEENS1_5ErrorIS5_EENS_8FreeTypeENS_11GenericTypeENS_13PrimitiveTypeENS_13SingletonTypeENS_11BlockedTypeENS_20PendingExpansionTypeENS_12FunctionTypeENS_9TableTypeENS_13MetatableTypeENS_9ClassTypeENS_7AnyTypeENS_9UnionTypeENS_16IntersectionTypeENS_8LazyTypeENS_11UnknownTypeENS_9NeverTypeENS_12NegationTypeENS_12NoRefineTypeENS_24TypeFunctionInstanceTypeEEE6get_ifISO_EEPKT_v(ptr noundef nonnull align 8 dereferenceable(344) %0) #2 comdat align 2 {
  %2 = alloca ptr, align 8
  %3 = alloca i32, align 4
  store ptr %0, ptr %2, align 8, !tbaa !1418
  %4 = load ptr, ptr %2, align 8
  call void @llvm.lifetime.start.p0(i64 4, ptr %3) #4
  store i32 17, ptr %3, align 4, !tbaa !4
  %5 = getelementptr inbounds nuw %"class.Luau::Variant.454", ptr %4, i32 0, i32 0
  %6 = load i32, ptr %5, align 8, !tbaa !1420
  %7 = icmp eq i32 17, %6
  br i1 %7, label %8, label %10

8:                                                ; preds = %1
  %9 = getelementptr inbounds nuw %"class.Luau::Variant.454", ptr %4, i32 0, i32 2
  br label %11

10:                                               ; preds = %1
  br label %11

11:                                               ; preds = %10, %8
  %12 = phi ptr [ %9, %8 ], [ null, %10 ]
  call void @llvm.lifetime.end.p0(i64 4, ptr %3) #4
  ret ptr %12
}

; Function Attrs: mustprogress nounwind uwtable
define linkonce_odr dso_local noundef ptr @_ZN4Luau6get_ifINS_16BooleanSingletonEJS1_NS_15StringSingletonEEEEPKT_PKNS_7VariantIJDpT0_EEE(ptr noundef %0) #2 comdat {
  %2 = alloca ptr, align 8
  store ptr %0, ptr %2, align 8, !tbaa !187
  %3 = load ptr, ptr %2, align 8, !tbaa !187
  %4 = icmp ne ptr %3, null
  br i1 %4, label %5, label %8

5:                                                ; preds = %1
  %6 = load ptr, ptr %2, align 8, !tbaa !187
  %7 = call noundef ptr @_ZNK4Luau7VariantIJNS_16BooleanSingletonENS_15StringSingletonEEE6get_ifIS1_EEPKT_v(ptr noundef nonnull align 8 dereferenceable(40) %6)
  br label %9

8:                                                ; preds = %1
  br label %9

9:                                                ; preds = %8, %5
  %10 = phi ptr [ %7, %5 ], [ null, %8 ]
  ret ptr %10
}

; Function Attrs: mustprogress uwtable
define linkonce_odr dso_local noundef ptr @_ZN4Luau6get_ifINS_13SingletonTypeEJNS_9Unifiable5BoundIPKNS_4TypeEEENS2_5ErrorIS6_EENS_8FreeTypeENS_11GenericTypeENS_13PrimitiveTypeES1_NS_11BlockedTypeENS_20PendingExpansionTypeENS_12FunctionTypeENS_9TableTypeENS_13MetatableTypeENS_9ClassTypeENS_7AnyTypeENS_9UnionTypeENS_16IntersectionTypeENS_8LazyTypeENS_11UnknownTypeENS_9NeverTypeENS_12NegationTypeENS_12NoRefineTypeENS_24TypeFunctionInstanceTypeEEEEPKT_PKNS_7VariantIJDpT0_EEE(ptr noundef %0) #6 comdat {
  %2 = alloca ptr, align 8
  store ptr %0, ptr %2, align 8, !tbaa !1418
  %3 = load ptr, ptr %2, align 8, !tbaa !1418
  %4 = icmp ne ptr %3, null
  br i1 %4, label %5, label %8

5:                                                ; preds = %1
  %6 = load ptr, ptr %2, align 8, !tbaa !1418
  %7 = call noundef ptr @_ZNK4Luau7VariantIJNS_9Unifiable5BoundIPKNS_4TypeEEENS1_5ErrorIS5_EENS_8FreeTypeENS_11GenericTypeENS_13PrimitiveTypeENS_13SingletonTypeENS_11BlockedTypeENS_20PendingExpansionTypeENS_12FunctionTypeENS_9TableTypeENS_13MetatableTypeENS_9ClassTypeENS_7AnyTypeENS_9UnionTypeENS_16IntersectionTypeENS_8LazyTypeENS_11UnknownTypeENS_9NeverTypeENS_12NegationTypeENS_12NoRefineTypeENS_24TypeFunctionInstanceTypeEEE6get_ifISC_EEPKT_v(ptr noundef nonnull align 8 dereferenceable(344) %6)
  br label %9

8:                                                ; preds = %1
  br label %9

9:                                                ; preds = %8, %5
  %10 = phi ptr [ %7, %5 ], [ null, %8 ]
  ret ptr %10
}

; Function Attrs: mustprogress uwtable
define linkonce_odr dso_local noundef ptr @_ZN4Luau6get_ifINS_9NeverTypeEJNS_9Unifiable5BoundIPKNS_4TypeEEENS2_5ErrorIS6_EENS_8FreeTypeENS_11GenericTypeENS_13PrimitiveTypeENS_13SingletonTypeENS_11BlockedTypeENS_20PendingExpansionTypeENS_12FunctionTypeENS_9TableTypeENS_13MetatableTypeENS_9ClassTypeENS_7AnyTypeENS_9UnionTypeENS_16IntersectionTypeENS_8LazyTypeENS_11UnknownTypeES1_NS_12NegationTypeENS_12NoRefineTypeENS_24TypeFunctionInstanceTypeEEEEPKT_PKNS_7VariantIJDpT0_EEE(ptr noundef %0) #6 comdat {
  %2 = alloca ptr, align 8
  store ptr %0, ptr %2, align 8, !tbaa !1418
  %3 = load ptr, ptr %2, align 8, !tbaa !1418
  %4 = icmp ne ptr %3, null
  br i1 %4, label %5, label %8

5:                                                ; preds = %1
  %6 = load ptr, ptr %2, align 8, !tbaa !1418
  %7 = call noundef ptr @_ZNK4Luau7VariantIJNS_9Unifiable5BoundIPKNS_4TypeEEENS1_5ErrorIS5_EENS_8FreeTypeENS_11GenericTypeENS_13PrimitiveTypeENS_13SingletonTypeENS_11BlockedTypeENS_20PendingExpansionTypeENS_12FunctionTypeENS_9TableTypeENS_13MetatableTypeENS_9ClassTypeENS_7AnyTypeENS_9UnionTypeENS_16IntersectionTypeENS_8LazyTypeENS_11UnknownTypeENS_9NeverTypeENS_12NegationTypeENS_12NoRefineTypeENS_24TypeFunctionInstanceTypeEEE6get_ifISO_EEPKT_v(ptr noundef nonnull align 8 dereferenceable(344) %6)
  br label %9

8:                                                ; preds = %1
  br label %9

9:                                                ; preds = %8, %5
  %10 = phi ptr [ %7, %5 ], [ null, %8 ]
  ret ptr %10
}

; Function Attrs: mustprogress nounwind uwtable
define linkonce_odr dso_local noundef ptr @_ZNK4Luau7NotNullINS_12BuiltinTypesEEptEv(ptr noundef nonnull align 8 dereferenceable(8) %0) #2 comdat align 2 {
  %2 = alloca ptr, align 8
  store ptr %0, ptr %2, align 8, !tbaa !162
  %3 = load ptr, ptr %2, align 8
  %4 = getelementptr inbounds nuw %"struct.Luau::NotNull", ptr %3, i32 0, i32 0
  %5 = load ptr, ptr %4, align 8, !tbaa !164
  ret ptr %5
}

; Function Attrs: mustprogress uwtable
define linkonce_odr dso_local noundef ptr @_ZN4Luau3getINS_16BooleanSingletonEEEPKT_PKNS_13SingletonTypeE(ptr noundef %0) #6 comdat {
  %2 = alloca ptr, align 8
  %3 = alloca ptr, align 8
  store ptr %0, ptr %3, align 8, !tbaa !181
  %4 = load ptr, ptr %3, align 8, !tbaa !181
  %5 = icmp ne ptr %4, null
  br i1 %5, label %6, label %10

6:                                                ; preds = %1
  %7 = load ptr, ptr %3, align 8, !tbaa !181
  %8 = getelementptr inbounds nuw %"struct.Luau::SingletonType", ptr %7, i32 0, i32 0
  %9 = call noundef ptr @_ZN4Luau6get_ifINS_16BooleanSingletonEJS1_NS_15StringSingletonEEEEPKT_PKNS_7VariantIJDpT0_EEE(ptr noundef %8)
  store ptr %9, ptr %2, align 8
  br label %11

10:                                               ; preds = %1
  store ptr null, ptr %2, align 8
  br label %11

11:                                               ; preds = %10, %6
  %12 = load ptr, ptr %2, align 8
  ret ptr %12
}

; Function Attrs: mustprogress uwtable
define linkonce_odr dso_local noundef ptr @_ZN4Luau3getINS_13SingletonTypeEEEPKT_PKNS_4TypeE(ptr noundef %0) #6 comdat {
  %2 = alloca ptr, align 8
  store ptr %0, ptr %2, align 8, !tbaa !44
  %3 = load ptr, ptr %2, align 8, !tbaa !44
  %4 = getelementptr inbounds nuw %"struct.Luau::Type", ptr %3, i32 0, i32 0
  %5 = call noundef ptr @_ZN4Luau6get_ifINS_13SingletonTypeEJNS_9Unifiable5BoundIPKNS_4TypeEEENS2_5ErrorIS6_EENS_8FreeTypeENS_11GenericTypeENS_13PrimitiveTypeES1_NS_11BlockedTypeENS_20PendingExpansionTypeENS_12FunctionTypeENS_9TableTypeENS_13MetatableTypeENS_9ClassTypeENS_7AnyTypeENS_9UnionTypeENS_16IntersectionTypeENS_8LazyTypeENS_11UnknownTypeENS_9NeverTypeENS_12NegationTypeENS_12NoRefineTypeENS_24TypeFunctionInstanceTypeEEEEPKT_PKNS_7VariantIJDpT0_EEE(ptr noundef %4)
  ret ptr %5
}

; Function Attrs: mustprogress uwtable
define linkonce_odr dso_local noundef ptr @_ZN4Luau3getINS_9NeverTypeEEEPKT_PKNS_4TypeE(ptr noundef %0) #6 comdat {
  %2 = alloca ptr, align 8
  store ptr %0, ptr %2, align 8, !tbaa !44
  %3 = load ptr, ptr %2, align 8, !tbaa !44
  %4 = getelementptr inbounds nuw %"struct.Luau::Type", ptr %3, i32 0, i32 0
  %5 = call noundef ptr @_ZN4Luau6get_ifINS_9NeverTypeEJNS_9Unifiable5BoundIPKNS_4TypeEEENS2_5ErrorIS6_EENS_8FreeTypeENS_11GenericTypeENS_13PrimitiveTypeENS_13SingletonTypeENS_11BlockedTypeENS_20PendingExpansionTypeENS_12FunctionTypeENS_9TableTypeENS_13MetatableTypeENS_9ClassTypeENS_7AnyTypeENS_9UnionTypeENS_16IntersectionTypeENS_8LazyTypeENS_11UnknownTypeES1_NS_12NegationTypeENS_12NoRefineTypeENS_24TypeFunctionInstanceTypeEEEEPKT_PKNS_7VariantIJDpT0_EEE(ptr noundef %4)
  ret ptr %5
}

; Function Attrs: mustprogress uwtable
define dso_local noundef ptr @_ZN4Luau10Normalizer12unionOfBoolsEPKNS_4TypeES3_(ptr noundef nonnull align 8 dereferenceable(337) %0, ptr noundef %1, ptr noundef %2) #6 align 2 {
  %4 = alloca ptr, align 8
  %5 = alloca ptr, align 8
  %6 = alloca ptr, align 8
  %7 = alloca ptr, align 8
  %8 = alloca ptr, align 8
  %9 = alloca ptr, align 8
  %10 = alloca i32, align 4
  store ptr %0, ptr %5, align 8, !tbaa !191
  store ptr %1, ptr %6, align 8, !tbaa !44
  store ptr %2, ptr %7, align 8, !tbaa !44
  %11 = load ptr, ptr %5, align 8
  %12 = load ptr, ptr %6, align 8, !tbaa !44
  %13 = call noundef ptr @_ZN4Luau3getINS_9NeverTypeEEEPKT_PKNS_4TypeE(ptr noundef %12)
  %14 = icmp ne ptr %13, null
  br i1 %14, label %15, label %17

15:                                               ; preds = %3
  %16 = load ptr, ptr %7, align 8, !tbaa !44
  store ptr %16, ptr %4, align 8
  br label %62

17:                                               ; preds = %3
  %18 = load ptr, ptr %7, align 8, !tbaa !44
  %19 = call noundef ptr @_ZN4Luau3getINS_9NeverTypeEEEPKT_PKNS_4TypeE(ptr noundef %18)
  %20 = icmp ne ptr %19, null
  br i1 %20, label %21, label %23

21:                                               ; preds = %17
  %22 = load ptr, ptr %6, align 8, !tbaa !44
  store ptr %22, ptr %4, align 8
  br label %62

23:                                               ; preds = %17
  call void @llvm.lifetime.start.p0(i64 8, ptr %8) #4
  %24 = load ptr, ptr %6, align 8, !tbaa !44
  %25 = call noundef ptr @_ZN4Luau3getINS_13SingletonTypeEEEPKT_PKNS_4TypeE(ptr noundef %24)
  %26 = call noundef ptr @_ZN4Luau3getINS_16BooleanSingletonEEEPKT_PKNS_13SingletonTypeE(ptr noundef %25)
  store ptr %26, ptr %8, align 8, !tbaa !183
  %27 = load ptr, ptr %8, align 8, !tbaa !183
  %28 = icmp ne ptr %27, null
  br i1 %28, label %29, label %54

29:                                               ; preds = %23
  call void @llvm.lifetime.start.p0(i64 8, ptr %9) #4
  %30 = load ptr, ptr %7, align 8, !tbaa !44
  %31 = call noundef ptr @_ZN4Luau3getINS_13SingletonTypeEEEPKT_PKNS_4TypeE(ptr noundef %30)
  %32 = call noundef ptr @_ZN4Luau3getINS_16BooleanSingletonEEEPKT_PKNS_13SingletonTypeE(ptr noundef %31)
  store ptr %32, ptr %9, align 8, !tbaa !183
  %33 = load ptr, ptr %9, align 8, !tbaa !183
  %34 = icmp ne ptr %33, null
  br i1 %34, label %35, label %50

35:                                               ; preds = %29
  %36 = load ptr, ptr %8, align 8, !tbaa !183
  %37 = getelementptr inbounds nuw %"struct.Luau::BooleanSingleton", ptr %36, i32 0, i32 0
  %38 = load i8, ptr %37, align 1, !tbaa !185, !range !28, !noundef !29
  %39 = trunc i8 %38 to i1
  %40 = zext i1 %39 to i32
  %41 = load ptr, ptr %9, align 8, !tbaa !183
  %42 = getelementptr inbounds nuw %"struct.Luau::BooleanSingleton", ptr %41, i32 0, i32 0
  %43 = load i8, ptr %42, align 1, !tbaa !185, !range !28, !noundef !29
  %44 = trunc i8 %43 to i1
  %45 = zext i1 %44 to i32
  %46 = icmp eq i32 %40, %45
  br i1 %46, label %47, label %49

47:                                               ; preds = %35
  %48 = load ptr, ptr %6, align 8, !tbaa !44
  store ptr %48, ptr %4, align 8
  store i32 1, ptr %10, align 4
  br label %51

49:                                               ; preds = %35
  br label %50

50:                                               ; preds = %49, %29
  store i32 0, ptr %10, align 4
  br label %51

51:                                               ; preds = %50, %47
  call void @llvm.lifetime.end.p0(i64 8, ptr %9) #4
  %52 = load i32, ptr %10, align 4
  switch i32 %52, label %55 [
    i32 0, label %53
  ]

53:                                               ; preds = %51
  br label %54

54:                                               ; preds = %53, %23
  store i32 0, ptr %10, align 4
  br label %55

55:                                               ; preds = %54, %51
  call void @llvm.lifetime.end.p0(i64 8, ptr %8) #4
  %56 = load i32, ptr %10, align 4
  switch i32 %56, label %64 [
    i32 0, label %57
    i32 1, label %62
  ]

57:                                               ; preds = %55
  %58 = getelementptr inbounds nuw %"class.Luau::Normalizer", ptr %11, i32 0, i32 7
  %59 = call noundef ptr @_ZNK4Luau7NotNullINS_12BuiltinTypesEEptEv(ptr noundef nonnull align 8 dereferenceable(8) %58) #4
  %60 = getelementptr inbounds nuw %"struct.Luau::BuiltinTypes", ptr %59, i32 0, i32 5
  %61 = load ptr, ptr %60, align 8, !tbaa !411
  store ptr %61, ptr %4, align 8
  br label %62

62:                                               ; preds = %57, %55, %21, %15
  %63 = load ptr, ptr %4, align 8
  ret ptr %63

64:                                               ; preds = %55
  unreachable
}