; Function Attrs: mustprogress nofree norecurse nosync nounwind willreturn memory(read, inaccessiblemem: none) uwtable
define dso_local noundef ptr @_ZN4Luau10Normalizer12unionOfBoolsEPKNS_4TypeES3_(ptr noundef nonnull readonly align 8 captures(none) dereferenceable(337) %0, ptr noundef readonly %1, ptr noundef readonly %2) local_unnamed_addr #9 align 2 {
  %.not.i.i = icmp eq ptr %1, null
  br i1 %.not.i.i, label %7, label %4

4:                                                ; preds = %3
  %5 = load i32, ptr %1, align 8, !tbaa !52
  %6 = icmp eq i32 %5, 17
  br i1 %6, label %_ZN4Luau3getINS_9NeverTypeEEEPKT_PKNS_4TypeE.exit, label %7

7:                                                ; preds = %4, %3
  %.not.i.i21 = icmp eq ptr %2, null
  br i1 %.not.i.i21, label %11, label %8

8:                                                ; preds = %7
  %9 = load i32, ptr %2, align 8, !tbaa !52
  %10 = icmp eq i32 %9, 17
  br i1 %10, label %_ZN4Luau3getINS_9NeverTypeEEEPKT_PKNS_4TypeE.exit, label %11

11:                                               ; preds = %8, %7
  br i1 %.not.i.i, label %_ZN4Luau3getINS_16BooleanSingletonEEEPKT_PKNS_13SingletonTypeE.exit.thread, label %12

12:                                               ; preds = %11
  %13 = load i32, ptr %1, align 8, !tbaa !52
  %14 = icmp eq i32 %13, 5
  br i1 %14, label %_ZN4Luau6get_ifINS_16BooleanSingletonEJS1_NS_15StringSingletonEEEEPKT_PKNS_7VariantIJDpT0_EEE.exit.i, label %_ZN4Luau3getINS_16BooleanSingletonEEEPKT_PKNS_13SingletonTypeE.exit.thread

_ZN4Luau6get_ifINS_16BooleanSingletonEJS1_NS_15StringSingletonEEEEPKT_PKNS_7VariantIJDpT0_EEE.exit.i: ; preds = %12
  %15 = getelementptr inbounds nuw i8, ptr %1, i64 8
  %16 = load i32, ptr %15, align 8, !tbaa !148
  %17 = icmp ne i32 %16, 0
  %18 = getelementptr inbounds nuw i8, ptr %1, i64 16
  %brmerge = or i1 %.not.i.i21, %17
  br i1 %brmerge, label %_ZN4Luau3getINS_16BooleanSingletonEEEPKT_PKNS_13SingletonTypeE.exit.thread, label %19

19:                                               ; preds = %_ZN4Luau6get_ifINS_16BooleanSingletonEJS1_NS_15StringSingletonEEEEPKT_PKNS_7VariantIJDpT0_EEE.exit.i
  %20 = load i32, ptr %2, align 8, !tbaa !52
  %21 = icmp eq i32 %20, 5
  br i1 %21, label %_ZN4Luau6get_ifINS_16BooleanSingletonEJS1_NS_15StringSingletonEEEEPKT_PKNS_7VariantIJDpT0_EEE.exit.i27, label %_ZN4Luau3getINS_16BooleanSingletonEEEPKT_PKNS_13SingletonTypeE.exit.thread

_ZN4Luau6get_ifINS_16BooleanSingletonEJS1_NS_15StringSingletonEEEEPKT_PKNS_7VariantIJDpT0_EEE.exit.i27: ; preds = %19
  %22 = getelementptr inbounds nuw i8, ptr %2, i64 8
  %23 = load i32, ptr %22, align 8, !tbaa !148
  %24 = icmp eq i32 %23, 0
  br i1 %24, label %_ZN4Luau3getINS_16BooleanSingletonEEEPKT_PKNS_13SingletonTypeE.exit29, label %_ZN4Luau3getINS_16BooleanSingletonEEEPKT_PKNS_13SingletonTypeE.exit.thread

_ZN4Luau3getINS_16BooleanSingletonEEEPKT_PKNS_13SingletonTypeE.exit29: ; preds = %_ZN4Luau6get_ifINS_16BooleanSingletonEJS1_NS_15StringSingletonEEEEPKT_PKNS_7VariantIJDpT0_EEE.exit.i27
  %25 = getelementptr inbounds nuw i8, ptr %2, i64 16
  %26 = load i8, ptr %18, align 1, !tbaa !150, !range !34, !noundef !35
  %27 = load i8, ptr %25, align 1, !tbaa !150, !range !34, !noundef !35
  %28 = icmp eq i8 %26, %27
  br i1 %28, label %_ZN4Luau3getINS_9NeverTypeEEEPKT_PKNS_4TypeE.exit, label %_ZN4Luau3getINS_16BooleanSingletonEEEPKT_PKNS_13SingletonTypeE.exit.thread

_ZN4Luau3getINS_16BooleanSingletonEEEPKT_PKNS_13SingletonTypeE.exit.thread: ; preds = %_ZN4Luau6get_ifINS_16BooleanSingletonEJS1_NS_15StringSingletonEEEEPKT_PKNS_7VariantIJDpT0_EEE.exit.i, %_ZN4Luau3getINS_16BooleanSingletonEEEPKT_PKNS_13SingletonTypeE.exit29, %_ZN4Luau6get_ifINS_16BooleanSingletonEJS1_NS_15StringSingletonEEEEPKT_PKNS_7VariantIJDpT0_EEE.exit.i27, %19, %11, %12
  %29 = getelementptr inbounds nuw i8, ptr %0, i64 320
  %30 = load ptr, ptr %29, align 8, !tbaa !227
  %31 = getelementptr inbounds nuw i8, ptr %30, i64 40
  %32 = load ptr, ptr %31, align 8, !tbaa !309
  br label %_ZN4Luau3getINS_9NeverTypeEEEPKT_PKNS_4TypeE.exit

_ZN4Luau3getINS_9NeverTypeEEEPKT_PKNS_4TypeE.exit: ; preds = %_ZN4Luau3getINS_16BooleanSingletonEEEPKT_PKNS_13SingletonTypeE.exit29, %8, %4, %_ZN4Luau3getINS_16BooleanSingletonEEEPKT_PKNS_13SingletonTypeE.exit.thread
  %.014 = phi ptr [ %32, %_ZN4Luau3getINS_16BooleanSingletonEEEPKT_PKNS_13SingletonTypeE.exit.thread ], [ %2, %4 ], [ %1, %8 ], [ %1, %_ZN4Luau3getINS_16BooleanSingletonEEEPKT_PKNS_13SingletonTypeE.exit29 ]
  ret ptr %.014
}